; Function Attrs: mustprogress nounwind uwtable
define dso_local ptr @_ZN5clang4ento8RangeSet7Factory9intersectES1_N4llvm6APSIntE(ptr noundef nonnull align 8 dereferenceable(120) %0, ptr %1, ptr noundef nonnull %2) local_unnamed_addr #1 align 2 {
  %4 = alloca %"class.clang::ento::RangeSet", align 8
  store ptr %1, ptr %4, align 8
  %5 = call noundef zeroext i1 @_ZNK5clang4ento8RangeSet12containsImplERN4llvm6APSIntE(ptr noundef nonnull align 8 dereferenceable(8) %4, ptr noundef nonnull align 8 dereferenceable(13) %2)
  br i1 %5, label %6, label %10

6:                                                ; preds = %3
  %7 = load ptr, ptr %0, align 8
  %8 = tail call noundef nonnull align 8 dereferenceable(13) ptr @_ZN5clang4ento17BasicValueFactory8getValueERKN4llvm6APSIntE(ptr noundef nonnull align 8 dereferenceable(144) %7, ptr noundef nonnull align 8 dereferenceable(13) %2) #22
  %9 = tail call ptr @_ZN5clang4ento8RangeSet7Factory11getRangeSetENS0_5RangeE(ptr noundef nonnull align 8 dereferenceable(120) %0, ptr nonnull %8, ptr nonnull %8)
  br label %10

10:                                               ; preds = %3, %6
  %.sroa.0.0 = phi ptr [ %9, %6 ], [ @_ZN5clang4ento8RangeSet7Factory8EmptySetE, %3 ]
  ret ptr %.sroa.0.0
}